(dp0
S'Broad-tailed Hummingbird'
p1
(lp2
S'Broad-tailed Hummingbird (Adult Male)'
p3
aS'Broad-tailed Hummingbird (Female, immature)'
p4
asS'Hirundo'
p5
(lp6
S'Barn Swallow'
p7
asS'Black Guillemot'
p8
(lp9
S'Black Guillemot (Nonbreeding, juvenile)'
p10
aS'Black Guillemot (Breeding)'
p11
asS'Lark Bunting'
p12
(lp13
S'Lark Bunting (Breeding male)'
p14
aS'Lark Bunting (Female/Nonbreeding male)'
p15
asS'Evening Grosbeak'
p16
(lp17
S'Evening Grosbeak (Female/Juvenile)'
p18
aS'Evening Grosbeak (Adult Male)'
p19
asS'Parulidae'
p20
(lp21
S'Setophaga'
p22
aS'Icteria'
p23
aS'Protonotaria'
p24
aS'Geothlypis'
p25
aS'Oreothlypis'
p26
aS'Parkesia'
p27
aS'Cardellina'
p28
aS'Seiurus'
p29
aS'Mniotilta'
p30
aS'Vermivora'
p31
asS'Bald Eagle'
p32
(lp33
S'Bald Eagle (Adult, subadult)'
p34
aS'Bald Eagle (Immature, juvenile)'
p35
asS'Black-throated Blue Warbler'
p36
(lp37
S'Black-throated Blue Warbler (Adult Male)'
p38
aS'Black-throated Blue Warbler (Female/Immature male)'
p39
asS'Great Black-backed Gull'
p40
(lp41
S'Great Black-backed Gull (Immature)'
p42
aS'Great Black-backed Gull (Adult)'
p43
asS'Baeolophus'
p44
(lp45
S'Tufted Titmouse'
p46
aS'Oak Titmouse'
p47
aS'Juniper Titmouse'
p48
aS'Black-crested Titmouse'
p49
aS'Bridled Titmouse'
p50
asS'Anseriformes'
p51
(lp52
S'Anatidae'
p53
asS'Piranga'
p54
(lp55
S'Summer Tanager'
p56
aS'Scarlet Tanager'
p57
aS'Western Tanager'
p58
asS'Anthus'
p59
(lp60
S'American Pipit'
p61
asS'Scolopacinae'
p62
(lp63
S'Actitis'
p64
aS'Calidris'
p65
aS'Gallinago'
p66
aS'Arenaria'
p67
aS'Tringa'
p68
aS'Numenius'
p69
aS'Scolopax'
p70
aS'Limosa'
p71
aS'Limnodromus'
p72
asS'Chordeilinae'
p73
(lp74
S'Chordeiles'
p75
asS'Passerella'
p76
(lp77
S'Fox Sparrow'
p78
asS'Zenaida'
p79
(lp80
S'Mourning Dove'
p81
aS'White-winged Dove'
p82
asS'Sanderling'
p83
(lp84
S'Sanderling (Breeding)'
p85
aS'Sanderling (Nonbreeding/juvenile)'
p86
asS'Ardeidae'
p87
(lp88
S'Bubulcus'
p89
aS'Ardea'
p90
aS'Nyctanassa'
p91
aS'Egretta'
p92
aS'Nycticorax'
p93
aS'Butorides'
p94
asS'Sphyrapicus'
p95
(lp96
S'Red-naped Sapsucker'
p97
aS'Red-breasted Sapsucker'
p98
aS'Yellow-bellied Sapsucker'
p99
asS'Magnolia Warbler'
p100
(lp101
S'Magnolia Warbler (Breeding male)'
p102
aS'Magnolia Warbler (Female/immature male)'
p103
asS'Spiza'
p104
(lp105
S'Dickcissel'
p106
asS'Great Cormorant'
p107
(lp108
S'Great Cormorant (Adult)'
p109
aS'Great Cormorant (Immature)'
p110
asS'Yellow-rumped Warbler'
p111
(lp112
S'Yellow-rumped Warbler (Winter/juvenile Myrtle)'
p113
aS"Yellow-rumped Warbler (Winter/juvenile Audubon's)"
p114
aS"Yellow-rumped Warbler (Breeding Audubon's)"
p115
aS'Yellow-rumped Warbler (Breeding Myrtle)'
p116
asS'Emberizidae'
p117
(lp118
S'Calamospiza'
p119
aS'Junco'
p120
aS'Zonotrichia'
p121
aS'Melozone'
p122
aS'Pipilo'
p123
aS'Spizella'
p124
aS'Spizelloides'
p125
aS'Passerculus'
p126
ag76
aS'Aimophila'
p127
aS'Melospiza'
p128
aS'Chondestes'
p129
aS'Pooecetes'
p130
asS'Tetraoninae'
p131
(lp132
S'Bonasa'
p133
asS'Hylocichla'
p134
(lp135
S'Wood Thrush'
p136
asS'Cynanthus'
p137
(lp138
S'Broad-billed Hummingbird'
p139
asS'Falconiformes'
p140
(lp141
S'Falconidae'
p142
asS'Northern Shoveler'
p143
(lp144
S'Northern Shoveler (Female/Eclipse male)'
p145
aS'Northern Shoveler (Breeding male)'
p146
asS'Chaetura'
p147
(lp148
S'Chimney Swift'
p149
aS"Vaux's Swift"
p150
asS'Aves'
p151
(lp152
g51
aS'Caprimulgiformes'
p153
aS'Pelecaniformes'
p154
aS'Apodiformes'
p155
aS'Podicipediformes'
p156
aS'Passeriformes'
p157
aS'Coraciiformes'
p158
ag140
aS'Accipitriformes'
p159
aS'Charadriiformes'
p160
aS'Columbiformes'
p161
aS'Piciformes'
p162
aS'Cuculiformes'
p163
aS'Galliformes'
p164
aS'Gruiformes'
p165
aS'Strigiformes'
p166
aS'Suliformes'
p167
aS'Gaviiformes'
p168
aS'Ciconiiformes'
p169
aS'Psittaciformes'
p170
asS'White Ibis'
p171
(lp172
S'White Ibis (Adult)'
p173
aS'White Ibis (Immature)'
p174
asg128
(lp175
S'Song Sparrow'
p176
aS"Lincoln's Sparrow"
p177
aS'Swamp Sparrow'
p178
asg166
(lp179
S'Strigidae'
p180
aS'Tytonidae'
p181
asS'California Quail'
p182
(lp183
S'California Quail (Male)'
p184
aS'California Quail (Female/juvenile)'
p185
asg160
(lp186
S'Scolopacidae'
p187
aS'Alcidae'
p188
aS'Laridae'
p189
aS'Haematopodidae'
p190
aS'Charadriidae'
p191
aS'Recurvirostridae'
p192
asS'Somateria'
p193
(lp194
S'Common Eider'
p195
asS"Heermann's Gull"
p196
(lp197
S"Heermann's Gull (Immature)"
p198
aS"Heermann's Gull (Adult)"
p199
asS'Podicipedidae'
p200
(lp201
S'Podiceps'
p202
aS'Podilymbus'
p203
aS'Aechmophorus'
p204
asS'Himantopus'
p205
(lp206
S'Black-necked Stilt'
p207
asS'Sulidae'
p208
(lp209
S'Morus'
p210
asS'Callipepla'
p211
(lp212
S'Scaled Quail'
p213
aS"Gambel's Quail"
p214
ag182
asS'Ring-billed Gull'
p215
(lp216
S'Ring-billed Gull (Adult)'
p217
aS'Ring-billed Gull (Immature)'
p218
asg163
(lp219
S'Cuculidae'
p220
asS'Chipping Sparrow'
p221
(lp222
S'Chipping Sparrow (Breeding)'
p223
aS'Chipping Sparrow (Immature/nonbreeding adult)'
p224
asS'Sialia'
p225
(lp226
S'Mountain Bluebird'
p227
aS'Eastern Bluebird'
p228
aS'Western Bluebird'
p229
asS'Northern Gannet'
p230
(lp231
S'Northern Gannet (Immature/Juvenile)'
p232
aS'Northern Gannet (Adult, Subadult)'
p233
asg28
(lp234
S"Wilson's Warbler"
p235
aS'Canada Warbler'
p236
asS'Troglodytidae'
p237
(lp238
S'Thryomanes'
p239
aS'Catherpes'
p240
aS'Campylorhynchus'
p241
aS'Thryothorus'
p242
aS'Troglodytes'
p243
aS'Cistothorus'
p244
asS"Costa's Hummingbird"
p245
(lp246
S"Costa's Hummingbird (Female, immature)"
p247
aS"Costa's Hummingbird (Adult Male)"
p248
asg56
(lp249
S'Summer Tanager (Adult Male)'
p250
aS'Summer Tanager (Immature Male)'
p251
aS'Summer Tanager (Female)'
p252
asS'Orchard Oriole'
p253
(lp254
S'Orchard Oriole (Female/Juvenile)'
p255
aS'Orchard Oriole (Immature Male)'
p256
aS'Orchard Oriole (Adult Male)'
p257
asS'Hooded Oriole'
p258
(lp259
S'Hooded Oriole (Adult male)'
p260
aS'Hooded Oriole (Female/Immature male)'
p261
asS'Fluvicolinae'
p262
(lp263
S'Contopus'
p264
aS'Empidonax'
p265
aS'Sayornis'
p266
aS'Pyrocephalus'
p267
asS'Anhinga Genus'
p268
(lp269
S'Anhinga'
p270
asS'Branta'
p271
(lp272
S'Brant'
p273
aS'Canada Goose'
p274
aS'Cackling Goose'
p275
asg244
(lp276
S'Marsh Wren'
p277
asg266
(lp278
S"Say's Phoebe"
p279
aS'Black Phoebe'
p280
aS'Eastern Phoebe'
p281
asS'Trochilidae'
p282
(lp283
S'Trochilinae'
p284
asg25
(lp285
S'Common Yellowthroat'
p286
aS'Mourning Warbler'
p287
aS"MacGillivray's Warbler"
p288
asg72
(lp289
S'Short-billed Dowitcher'
p290
asS'Aegolius'
p291
(lp292
S'Northern Saw-whet Owl'
p293
asg139
(lp294
S'Broad-billed Hummingbird (Female, immature)'
p295
aS'Broad-billed Hummingbird (Adult Male)'
p296
asS'Lesser Goldfinch'
p297
(lp298
S'Lesser Goldfinch (Adult Male)'
p299
aS'Lesser Goldfinch (Female/juvenile)'
p300
asg29
(lp301
S'Ovenbird'
p302
asS'Stelgidopteryx'
p303
(lp304
S'Northern Rough-winged Swallow'
p305
asS'Odontophoridae'
p306
(lp307
g211
aS'Colinus'
p308
asS'Psittacidae'
p309
(lp310
S'Arinae'
p311
asS'Cardinalidae'
p312
(lp313
g54
aS'Cardinalis'
p314
aS'Passerina'
p315
aS'Pheucticus'
p316
ag104
asS"Barrow's Goldeneye"
p317
(lp318
S"Barrow's Goldeneye (Breeding male)"
p319
aS"Barrow's Goldeneye (Female/Eclipse male)"
p320
asS'Corvidae'
p321
(lp322
S'Corvus'
p323
aS'Aphelocoma'
p324
aS'Pica'
p325
aS'Cyanocitta'
p326
aS'Perisoreus'
p327
aS'Nucifraga'
p328
asg239
(lp329
S"Bewick's Wren"
p330
asS'Certhiinae'
p331
(lp332
S'Certhia'
p333
asg189
(lp334
S'Larinae'
p335
aS'Sterninae'
p336
aS'Rynchopinae'
p337
asg210
(lp338
g230
asS'Poecile'
p339
(lp340
S'Black-capped Chickadee'
p341
aS'Carolina Chickadee'
p342
aS'Chestnut-backed Chickadee'
p343
aS'Boreal Chickadee'
p344
aS'Mountain Chickadee'
p345
asS'Porphyrio'
p346
(lp347
S'Purple Gallinule'
p348
asS'Ictinia'
p349
(lp350
S'Mississippi Kite'
p351
asS'Red-necked Grebe'
p352
(lp353
S'Red-necked Grebe (Breeding)'
p354
aS'Red-necked Grebe (Nonbreeding/juvenile)'
p355
asS'Sturnus'
p356
(lp357
S'European Starling'
p358
asg284
(lp359
S'Archilochus'
p360
aS'Selasphorus'
p361
aS'Calypte'
p362
ag137
asS'California Gull'
p363
(lp364
S'California Gull (Adult)'
p365
aS'California Gull (Immature)'
p366
asS'White-throated Sparrow'
p367
(lp368
S'White-throated Sparrow (White-striped)'
p369
aS'White-throated Sparrow (Tan-striped/immature)'
p370
asS'Columbidae'
p371
(lp372
g79
aS'Patagioenas'
p373
aS'Streptopelia'
p374
aS'Columbina'
p375
aS'Columba'
p376
asS'Certhiidae'
p377
(lp378
g331
asS'Black Scoter'
p379
(lp380
S'Black Scoter (Male)'
p381
aS'Black Scoter (Female/juvenile)'
p382
asS'Black-chinned Hummingbird'
p383
(lp384
S'Black-chinned Hummingbird (Adult Male)'
p385
aS'Black-chinned Hummingbird (Female, immature)'
p386
asg164
(lp387
g306
aS'Phasianidae'
p388
asS"Harris's Sparrow"
p389
(lp390
S"Harris's Sparrow (Immature)"
p391
aS"Harris's Sparrow (Adult)"
p392
asg130
(lp393
S'Vesper Sparrow'
p394
asS'Agelaius'
p395
(lp396
S'Red-winged Blackbird'
p397
asS'Icterus'
p398
(lp399
S"Bullock's Oriole"
p400
ag253
ag258
aS'Baltimore Oriole'
p401
asS'Apodidae'
p402
(lp403
S'Chaeturinae'
p404
aS'Apodinae'
p405
asS'Bay-breasted Warbler'
p406
(lp407
S'Bay-breasted Warbler (Breeding male)'
p408
aS'Bay-breasted Warbler (Female, Nonbreeding male, Immature)'
p409
asS'Pelecanidae'
p410
(lp411
S'Pelecanus'
p412
asg157
(lp413
g237
ag117
ag312
ag20
ag321
aS'Turdidae'
p414
aS'Tyrannidae'
p415
aS'Paridae'
p416
aS'Fringillidae'
p417
aS'Icteridae'
p418
aS'Laniidae'
p419
aS'Remizidae'
p420
aS'Sylviidae'
p421
aS'Passeridae'
p422
aS'Regulidae'
p423
aS'Vireonidae'
p424
aS'Mimidae'
p425
aS'Alaudidae'
p426
aS'Hirundinidae'
p427
aS'Sittidae'
p428
aS'Polioptilidae'
p429
aS'Sturnidae'
p430
aS'Ptiliogonatidae'
p431
aS'Calcariidae'
p432
aS'Motacillidae'
p433
aS'Bombycillidae'
p434
ag377
aS'Aegithalidae'
p435
aS'Cinclidae'
p436
asS'Vermilion Flycatcher'
p437
(lp438
S'Vermilion Flycatcher (Adult male)'
p439
aS'Vermilion Flycatcher (Female, immature)'
p440
asS'Gallinula'
p441
(lp442
S'Common Gallinule'
p443
asS'Threskiornithinae'
p444
(lp445
S'Eudocimus'
p446
aS'Plegadis'
p447
asS'Turdus'
p448
(lp449
S'American Robin'
p450
asg412
(lp451
S'Brown Pelican'
p452
aS'American White Pelican'
p453
asS'Dendrocygninae'
p454
(lp455
S'Dendrocygna'
p456
asS'Brown-headed Cowbird'
p457
(lp458
S'Brown-headed Cowbird (Female/Juvenile)'
p459
aS'Brown-headed Cowbird (Male)'
p460
asS'Cinclus'
p461
(lp462
S'American Dipper'
p463
asS'Tyto'
p464
(lp465
S'Barn Owl'
p466
asg58
(lp467
S'Western Tanager (Breeding Male)'
p468
aS'Western Tanager (Female/Nonbreeding Male)'
p469
asS'Athene'
p470
(lp471
S'Burrowing Owl'
p472
asg336
(lp473
S'Hydroprogne'
p474
aS'Sterna'
p475
aS'Thalasseus'
p476
aS'Chlidonias'
p477
asS'Dunlin'
p478
(lp479
S'Dunlin (Nonbreeding/juvenile)'
p480
aS'Dunlin (Breeding)'
p481
asg69
(lp482
S'Whimbrel'
p483
aS'Long-billed Curlew'
p484
asS'Black-headed Grosbeak'
p485
(lp486
S'Black-headed Grosbeak (Adult Male)'
p487
aS'Black-headed Grosbeak (Female/immature male)'
p488
asS'Colaptes'
p489
(lp490
S'Northern Flicker'
p491
asg167
(lp492
S'Phalacrocoracidae'
p493
ag208
aS'Anhingidae'
p494
asS'Snow Bunting'
p495
(lp496
S'Snow Bunting (Nonbreeding)'
p497
aS'Snow Bunting (Breeding adult)'
p498
asS'Quiscalus'
p499
(lp500
S'Boat-tailed Grackle'
p501
aS'Common Grackle'
p502
aS'Great-tailed Grackle'
p503
asg424
(lp504
S'Vireo'
p505
asg90
(lp506
S'Great Blue Heron'
p507
aS'Great Egret'
p508
asS'Cerylinae'
p509
(lp510
S'Megaceryle'
p511
asS'Phalacrocorax'
p512
(lp513
S'Neotropic Cormorant'
p514
aS'Pelagic Cormorant'
p515
aS'Double-crested Cormorant'
p516
ag107
aS"Brandt's Cormorant"
p517
asS'Accipitridae'
p518
(lp519
S'Buteo'
p520
aS'Elanoides'
p521
aS'Accipiter'
p522
aS'Circus'
p523
ag349
aS'Aquila'
p524
aS'Haliaeetus'
p525
aS'Elanus'
p526
aS'Parabuteo'
p527
asS'Phalaropus'
p528
(lp529
S"Wilson's Phalarope"
p530
asS'Blue Grosbeak'
p531
(lp532
S'Blue Grosbeak (Female/juvenile)'
p533
aS'Blue Grosbeak (Adult Male)'
p534
asg431
(lp535
S'Phainopepla Genus'
p536
asg214
(lp537
S"Gambel's Quail (Male)"
p538
aS"Gambel's Quail (Female/juvenile)"
p539
asS'Melanerpes'
p540
(lp541
S'Golden-fronted Woodpecker'
p542
aS'Red-headed Woodpecker'
p543
aS'Gila Woodpecker'
p544
aS'Red-bellied Woodpecker'
p545
aS'Acorn Woodpecker'
p546
asS'Leucophaeus'
p547
(lp548
S'Laughing Gull'
p549
asg422
(lp550
S'Passer'
p551
asS'Grus'
p552
(lp553
S'Sandhill Crane'
p554
asS'Eared Grebe'
p555
(lp556
S'Eared Grebe (Nonbreeding/juvenile)'
p557
aS'Eared Grebe (Breeding)'
p558
asg124
(lp559
S"Brewer's Sparrow"
p560
ag221
aS'Clay-colored Sparrow'
p561
aS'Field Sparrow'
p562
asS'Petrochelidon'
p563
(lp564
S'Cliff Swallow'
p565
aS'Cave Swallow'
p566
asg192
(lp567
g205
aS'Recurvirostra'
p568
asg520
(lp569
S"Swainson's Hawk"
p570
aS'Red-shouldered Hawk'
p571
aS'Red-tailed Hawk'
p572
aS'Broad-winged Hawk'
p573
aS'Rough-legged Hawk'
p574
asS'Megascops'
p575
(lp576
S'Eastern Screech-Owl'
p577
aS'Western Screech-Owl'
p578
asg195
(lp579
S'Common Eider (Female/juvenile)'
p580
aS'Common Eider (Immature/Eclipse male)'
p581
aS'Common Eider (Adult male)'
p582
asg241
(lp583
S'Cactus Wren'
p584
asg133
(lp585
S'Ruffed Grouse'
p586
asg165
(lp587
S'Rallidae'
p588
aS'Gruidae'
p589
asg376
(lp590
S'Rock Pigeon'
p591
asS"Allen's Hummingbird"
p592
(lp593
S"Allen's Hummingbird (Female, immature)"
p594
aS"Allen's Hummingbird (Adult Male)"
p595
asg516
(lp596
S'Double-crested Cormorant (Adult)'
p597
aS'Double-crested Cormorant (Immature)'
p598
asS'Peregrine Falcon'
p599
(lp600
S'Peregrine Falcon (Adult)'
p601
aS'Peregrine Falcon (Immature)'
p602
asg475
(lp603
S"Forster's Tern"
p604
aS'Common Tern'
p605
asS'Caprimulgidae'
p606
(lp607
g73
asg397
(lp608
S'Red-winged Blackbird (Female/juvenile)'
p609
aS'Red-winged Blackbird (Male)'
p610
asS'Bufflehead'
p611
(lp612
S'Bufflehead (Female/immature male)'
p613
aS'Bufflehead (Breeding male)'
p614
asS'Painted Bunting'
p615
(lp616
S'Painted Bunting (Adult Male)'
p617
aS'Painted Bunting (Female/juvenile)'
p618
asg511
(lp619
S'Belted Kingfisher'
p620
asS'Toxostoma'
p621
(lp622
S'Curve-billed Thrasher'
p623
aS'California Thrasher'
p624
aS'Brown Thrasher'
p625
asS'Haematopus'
p626
(lp627
S'American Oystercatcher'
p628
aS'Black Oystercatcher'
p629
asg127
(lp630
S'Rufous-crowned Sparrow'
p631
asS'Chroicocephalus'
p632
(lp633
S"Bonaparte's Gull"
p634
asg27
(lp635
S'Northern Waterthrush'
p636
aS'Louisiana Waterthrush'
p637
asS'Neomorphinae'
p638
(lp639
S'Geococcyx'
p640
asg242
(lp641
S'Carolina Wren'
p642
asS'Golden Eagle'
p643
(lp644
S'Golden Eagle (Immature)'
p645
aS'Golden Eagle (Adult)'
p646
asg551
(lp647
S'House Sparrow'
p648
asg430
(lp649
g356
asg446
(lp650
g171
asg142
(lp651
S'Falconinae'
p652
asg92
(lp653
S'Little Blue Heron'
p654
aS'Reddish Egret'
p655
aS'Tricolored Heron'
p656
aS'Snowy Egret'
p657
asS'American Kestrel'
p658
(lp659
S'American Kestrel (Female, immature)'
p660
aS'American Kestrel (Adult male)'
p661
asg505
(lp662
S"Bell's Vireo"
p663
aS'Yellow-throated Vireo'
p664
aS'Red-eyed Vireo'
p665
aS'Warbling Vireo'
p666
aS'Blue-headed Vireo'
p667
aS'White-eyed Vireo'
p668
aS"Cassin's Vireo"
p669
aS'Plumbeous Vireo'
p670
aS"Hutton's Vireo"
p671
asg640
(lp672
S'Greater Roadrunner'
p673
asS'Molothrus'
p674
(lp675
g457
aS'Bronzed Cowbird'
p676
asg333
(lp677
S'Brown Creeper'
p678
asS'Fulica'
p679
(lp680
S'American Coot'
p681
asS'Gaviidae'
p682
(lp683
S'Gavia'
p684
asg348
(lp685
S'Purple Gallinule (Immature)'
p686
aS'Purple Gallinule (Adult)'
p687
asS'Coragyps'
p688
(lp689
S'Black Vulture'
p690
asg432
(lp691
S'Plectrophenax'
p692
asg71
(lp693
S'Marbled Godwit'
p694
asS'Dark-eyed Junco'
p695
(lp696
S'Dark-eyed Junco (Oregon)'
p697
aS'Dark-eyed Junco (Red-backed/Gray-headed)'
p698
aS'Dark-eyed Junco (Slate-colored)'
p699
aS'Dark-eyed Junco (Pink-sided)'
p700
aS'Dark-eyed Junco (White-winged)'
p701
asS'Myiarchus'
p702
(lp703
S'Great Crested Flycatcher'
p704
aS'Ash-throated Flycatcher'
p705
asg536
(lp706
S'Phainopepla'
p707
asg335
(lp708
S'Larus'
p709
ag632
aS'Rissa'
p710
ag547
asg374
(lp711
S'Eurasian Collared-Dove'
p712
asg57
(lp713
S'Scarlet Tanager (Female/Nonbreeding Male)'
p714
aS'Scarlet Tanager (Breeding Male)'
p715
asg526
(lp716
S'White-tailed Kite'
p717
asg477
(lp718
S'Black Tern'
p719
asg126
(lp720
S'Savannah Sparrow'
p721
asg493
(lp722
g512
asg456
(lp723
S'Black-bellied Whistling-Duck'
p724
asg425
(lp725
g621
aS'Mimus'
p726
aS'Dumetella'
p727
asg121
(lp728
S'Golden-crowned Sparrow'
p729
ag367
ag389
aS'White-crowned Sparrow'
p730
asg727
(lp731
S'Gray Catbird'
p732
asS'Plataleinae'
p733
(lp734
S'Platalea'
p735
asS'Spinus'
p736
(lp737
g297
aS'American Goldfinch'
p738
aS'Pine Siskin'
p739
asS'Auriparus'
p740
(lp741
S'Verdin'
p742
asg75
(lp743
S'Common Nighthawk'
p744
asS'Catharus'
p745
(lp746
S'Hermit Thrush'
p747
aS"Swainson's Thrush"
p748
aS'Veery'
p749
asS'Lazuli Bunting'
p750
(lp751
S'Lazuli Bunting (Female/juvenile)'
p752
aS'Lazuli Bunting (Adult Male)'
p753
asg328
(lp754
S"Clark's Nutcracker"
p755
asg494
(lp756
g268
asg400
(lp757
S"Bullock's Oriole (Adult male)"
p758
aS"Bullock's Oriole (Female/Immature male)"
p759
asS'Progne'
p760
(lp761
S'Purple Martin'
p762
asS"Anna's Hummingbird"
p763
(lp764
S"Anna's Hummingbird (Female, immature)"
p765
aS"Anna's Hummingbird (Adult Male)"
p766
asg426
(lp767
S'Eremophila'
p768
asS'Northern Pintail'
p769
(lp770
S'Northern Pintail (Breeding male)'
p771
aS'Northern Pintail (Female/Eclipse male)'
p772
asS'Threskiornithidae'
p773
(lp774
g444
ag733
asg120
(lp775
g695
asS'Dolichonyx'
p776
(lp777
S'Bobolink'
p778
asS'Regulus'
p779
(lp780
S'Golden-crowned Kinglet'
p781
aS'Ruby-crowned Kinglet'
p782
asg169
(lp783
S'Ciconiidae'
p784
asg423
(lp785
g779
asg521
(lp786
S'Swallow-tailed Kite'
p787
asg326
(lp788
S"Steller's Jay"
p789
aS'Blue Jay'
p790
asS'Bucephala'
p791
(lp792
g611
ag317
aS'Common Goldeneye'
p793
asg93
(lp794
S'Black-crowned Night-Heron'
p795
asS'Mycteria'
p796
(lp797
S'Wood Stork'
p798
asg361
(lp799
S'Rufous Hummingbird'
p800
ag592
ag1
aS'Calliope Hummingbird'
p801
asS'Dryocopus'
p802
(lp803
S'Pileated Woodpecker'
p804
asS'Xanthocephalus'
p805
(lp806
S'Yellow-headed Blackbird'
p807
asS'Leucosticte'
p808
(lp809
S'Gray-crowned Rosy-Finch'
p810
aS'Brown-capped Rosy-Finch'
p811
aS'Black Rosy-Finch'
p812
asg94
(lp813
S'Green Heron'
p814
asS'Common Merganser'
p815
(lp816
S'Common Merganser (Breeding male)'
p817
aS'Common Merganser (Female/immature male)'
p818
asS'Psaltriparus'
p819
(lp820
S'Bushtit'
p821
asg474
(lp822
S'Caspian Tern'
p823
asg549
(lp824
S'Laughing Gull (Breeding)'
p825
aS'Laughing Gull (Nonbreeding/Immature)'
p826
asS'Greater Scaup'
p827
(lp828
S'Greater Scaup (Female/Eclipse male)'
p829
aS'Greater Scaup (Breeding male)'
p830
asS'Pine Grosbeak'
p831
(lp832
S'Pine Grosbeak (Adult Male)'
p833
aS'Pine Grosbeak (Female/juvenile)'
p834
asS'Chen'
p835
(lp836
S'Snow Goose'
p837
aS"Ross's Goose"
p838
asS'Strix'
p839
(lp840
S'Barred Owl'
p841
asg155
(lp842
g282
ag402
asg729
(lp843
S'Golden-crowned Sparrow (Immature)'
p844
aS'Golden-crowned Sparrow (Adult)'
p845
asS'Northern Harrier'
p846
(lp847
S'Northern Harrier (Female, immature)'
p848
aS'Northern Harrier (Adult male)'
p849
asS'Tyranninae'
p850
(lp851
g702
aS'Tyrannus'
p852
asg428
(lp853
S'Sittinae'
p854
asg726
(lp855
S'Northern Mockingbird'
p856
asS'Myiopsitta'
p857
(lp858
S'Monk Parakeet'
p859
asS'Bubo'
p860
(lp861
S'Great Horned Owl'
p862
aS'Snowy Owl'
p863
asS'Caracara'
p864
(lp865
S'Crested Caracara'
p866
asS'Pinicola'
p867
(lp868
g831
asg191
(lp869
S'Charadriinae'
p870
asg648
(lp871
S'House Sparrow (Female/Juvenile)'
p872
aS'House Sparrow (Male)'
p873
asS'Surf Scoter'
p874
(lp875
S'Surf Scoter (Female/immature)'
p876
aS'Surf Scoter (Male)'
p877
asS'Loxia'
p878
(lp879
S'Red Crossbill'
p880
aS'White-winged Crossbill'
p881
asg220
(lp882
S'Cuculinae'
p883
ag638
asg476
(lp884
S'Royal Tern'
p885
asg433
(lp886
g59
asg203
(lp887
S'Pied-billed Grebe'
p888
asg162
(lp889
S'Picidae'
p890
asg125
(lp891
S'American Tree Sparrow'
p892
asS'Riparia'
p893
(lp894
S'Bank Swallow'
p895
asS'Falco'
p896
(lp897
g658
aS'Merlin'
p898
ag599
aS'Prairie Falcon'
p899
asg24
(lp900
S'Prothonotary Warbler'
p901
asg524
(lp902
g643
asg800
(lp903
S'Rufous Hummingbird (Female, immature)'
p904
aS'Rufous Hummingbird (Adult Male)'
p905
asg655
(lp906
S'Reddish Egret (White morph)'
p907
aS'Reddish Egret (Dark morph)'
p908
asS'Blackpoll Warbler'
p909
(lp910
S'Blackpoll Warbler (Female/juvenile)'
p911
aS'Blackpoll Warbler (Breeding male)'
p912
asg735
(lp913
S'Roseate Spoonbill'
p914
asg807
(lp915
S'Yellow-headed Blackbird (Adult Male)'
p916
aS'Yellow-headed Blackbird (Female/Immature Male)'
p917
asg65
(lp918
g83
aS'Semipalmated Sandpiper'
p919
aS'Western Sandpiper'
p920
ag478
aS'Surfbird'
p921
aS'Least Sandpiper'
p922
asg26
(lp923
S'Nashville Warbler'
p924
aS'Orange-crowned Warbler'
p925
aS'Tennessee Warbler'
p926
asg311
(lp927
g857
asg419
(lp928
S'Lanius'
p929
asg890
(lp930
S'Picinae'
p931
asS'Redhead'
p932
(lp933
S'Redhead (Breeding male)'
p934
aS'Redhead (Female/Eclipse male)'
p935
asg388
(lp936
S'Phasianinae'
p937
ag131
aS'Meleagridinae'
p938
asg421
(lp939
S'Chamaea'
p940
asg570
(lp941
S"Swainson's Hawk (Light morph )"
p942
aS"Swainson's Hawk (Dark morph )"
p943
aS"Swainson's Hawk (Immature)"
p944
asg264
(lp945
S'Eastern Wood-Pewee'
p946
aS'Western Wood-Pewee'
p947
asg854
(lp948
S'Sitta'
p949
asS"Cooper's Hawk"
p950
(lp951
S"Cooper's Hawk (Immature)"
p952
aS"Cooper's Hawk (Adult)"
p953
asS'Common Loon'
p954
(lp955
S'Common Loon (Nonbreeding/juvenile)'
p956
aS'Common Loon (Breeding)'
p957
asS'Ruddy Duck'
p958
(lp959
S'Ruddy Duck (Breeding male)'
p960
aS'Ruddy Duck (Female/juvenile)'
p961
aS'Ruddy Duck (Winter male)'
p962
asS'Green-winged Teal'
p963
(lp964
S'Green-winged Teal (Male)'
p965
aS'Green-winged Teal (Female/juvenile)'
p966
asg22
(lp967
g406
aS'Prairie Warbler'
p968
aS'Black-throated Gray Warbler'
p969
ag36
aS'Hermit Warbler'
p970
aS'Blackburnian Warbler'
p971
aS'Yellow Warbler'
p972
ag100
aS'American Redstart'
p973
aS'Chestnut-sided Warbler'
p974
ag909
aS'Hooded Warbler'
p975
aS'Palm Warbler'
p976
aS'Pine Warbler'
p977
aS'Yellow-throated Warbler'
p978
aS"Townsend's Warbler"
p979
aS'Cape May Warbler'
p980
ag111
aS'Northern Parula'
p981
aS'Black-throated Green Warbler'
p982
asg738
(lp983
S'American Goldfinch (Breeding Male)'
p984
aS'American Goldfinch (Female/Nonbreeding Male)'
p985
asS'Mergus'
p986
(lp987
g815
aS'Red-breasted Merganser'
p988
asS'Cathartes'
p989
(lp990
S'Turkey Vulture'
p991
asg527
(lp992
S"Harris's Hawk"
p993
asg938
(lp994
S'Meleagris'
p995
asg434
(lp996
S'Bombycilla'
p997
asg762
(lp998
S'Purple Martin (Adult male)'
p999
aS'Purple Martin (Female/juvenile)'
p1000
asg880
(lp1001
S'Red Crossbill (Female/juvenile)'
p1002
aS'Red Crossbill (Adult Male)'
p1003
asg358
(lp1004
S'European Starling (Breeding Adult)'
p1005
aS'European Starling (Nonbreeding Adult)'
p1006
aS'European Starling (Juvenile)'
p1007
asg327
(lp1008
S'Gray Jay'
p1009
asS'Carduelinae'
p1010
(lp1011
g808
aS'Haemorhous'
p1012
ag736
ag878
aS'Acanthis'
p1013
aS'Coccothraustes'
p1014
ag867
asg940
(lp1015
S'Wrentit'
p1016
asg523
(lp1017
g846
asg324
(lp1018
S'Florida Scrub-Jay'
p1019
aS'Mexican Jay'
p1020
aS'Western Scrub-Jay'
p1021
asg709
(lp1022
g196
ag363
aS'Western Gull'
p1023
aS'Glaucous-winged Gull'
p1024
ag215
ag40
aS'Herring Gull'
p1025
aS'Mew Gull'
p1026
asg883
(lp1027
S'Coccyzus'
p1028
asg568
(lp1029
S'American Avocet'
p1030
asg988
(lp1031
S'Red-breasted Merganser (Breeding male)'
p1032
aS'Red-breasted Merganser (Female/immature male)'
p1033
asg415
(lp1034
g262
ag850
asg204
(lp1035
S'Western Grebe'
p1036
aS"Clark's Grebe"
p1037
asg119
(lp1038
g12
asS'Northern Cardinal'
p1039
(lp1040
S'Northern Cardinal (Female/Juvenile)'
p1041
aS'Northern Cardinal (Adult Male)'
p1042
asS'Pandion'
p1043
(lp1044
S'Osprey'
p1045
asS'Ixoreus'
p1046
(lp1047
S'Varied Thrush'
p1048
asg937
(lp1049
S'Phasianus'
p1050
asS'Wood Duck'
p1051
(lp1052
S'Wood Duck (Female/Eclipse male)'
p1053
aS'Wood Duck (Breeding male)'
p1054
asg450
(lp1055
S'American Robin (Juvenile)'
p1056
aS'American Robin (Adult)'
p1057
asg588
(lp1058
g346
ag441
ag679
asg265
(lp1059
S'Least Flycatcher'
p1060
aS'Cordilleran Flycatcher'
p1061
aS'Pacific-slope Flycatcher'
p1062
asg435
(lp1063
g819
asg53
(lp1064
S'Anatinae'
p1065
aS'Anserinae'
p1066
ag454
asg973
(lp1067
S'American Redstart (Adult Male)'
p1068
aS'American Redstart (Female/juvenile)'
p1069
asg974
(lp1070
S'Chestnut-sided Warbler (Female/immature male)'
p1071
aS'Chestnut-sided Warbler (Breeding male)'
p1072
asg418
(lp1073
g674
ag398
aS'Euphagus'
p1074
ag805
ag499
aS'Sturnella'
p1075
ag395
ag776
asg730
(lp1076
S'White-crowned Sparrow (Adult)'
p1077
aS'White-crowned Sparrow (Immature)'
p1078
asS'Black-legged Kittiwake'
p1079
(lp1080
S'Black-legged Kittiwake (Adult)'
p1081
aS'Black-legged Kittiwake (Immature)'
p1082
asg267
(lp1083
g437
asS'Histrionicus'
p1084
(lp1085
S'Harlequin Duck'
p1086
asg325
(lp1087
S'Yellow-billed Magpie'
p1088
aS'Black-billed Magpie'
p1089
asg122
(lp1090
S'Canyon Towhee'
p1091
aS'California Towhee'
p1092
aS"Abert's Towhee"
p1093
asS'Lophodytes'
p1094
(lp1095
S'Hooded Merganser'
p1096
asg522
(lp1097
S'Sharp-shinned Hawk'
p1098
ag950
asS'Picoides'
p1099
(lp1100
S'Hairy Woodpecker'
p1101
aS'Ladder-backed Woodpecker'
p1102
aS'Downy Woodpecker'
p1103
aS"Nuttall's Woodpecker"
p1104
asg707
(lp1105
S'Phainopepla (Female/juvenile)'
p1106
aS'Phainopepla (Male)'
p1107
asg881
(lp1108
S'White-winged Crossbill (Adult Male)'
p1109
aS'White-winged Crossbill (Female/juvenile)'
p1110
asg417
(lp1111
g1010
asS'Aythya'
p1112
(lp1113
S'Lesser Scaup'
p1114
ag827
ag932
aS'Canvasback'
p1115
aS'Ring-necked Duck'
p1116
asS'Pluvialis'
p1117
(lp1118
S'Black-bellied Plover'
p1119
asg949
(lp1120
S'White-breasted Nuthatch'
p1121
aS'Pygmy Nuthatch'
p1122
aS'Red-breasted Nuthatch'
p1123
aS'Brown-headed Nuthatch'
p1124
asg286
(lp1125
S'Common Yellowthroat (Adult Male)'
p1126
aS'Common Yellowthroat (Female/immature male)'
p1127
asg337
(lp1128
S'Rynchops'
p1129
asS'Horned Grebe'
p1130
(lp1131
S'Horned Grebe (Breeding)'
p1132
aS'Horned Grebe (Nonbreeding/juvenile)'
p1133
asg491
(lp1134
S'Northern Flicker (Yellow-shafted)'
p1135
aS'Northern Flicker (Red-shafted)'
p1136
asg401
(lp1137
S'Baltimore Oriole (Female/Immature male)'
p1138
aS'Baltimore Oriole (Adult male)'
p1139
asg778
(lp1140
S'Bobolink (Breeding male)'
p1141
aS'Bobolink (Female/juvenile/nonbreeding male)'
p1142
asg1116
(lp1143
S'Ring-necked Duck (Breeding male)'
p1144
aS'Ring-necked Duck (Female/Eclipse male)'
p1145
asS'White-winged Scoter'
p1146
(lp1147
S'White-winged Scoter (Male)'
p1148
aS'White-winged Scoter (Female/juvenile)'
p1149
asS'Anser'
p1150
(lp1151
S'Greater White-fronted Goose'
p1152
asS'Oxyura'
p1153
(lp1154
g958
asg416
(lp1155
g44
ag339
asg427
(lp1156
S'Hirundininae'
p1157
asg315
(lp1158
g615
aS'Indigo Bunting'
p1159
ag750
ag531
asg23
(lp1160
S'Yellow-breasted Chat'
p1161
asg70
(lp1162
S'American Woodcock'
p1163
asg573
(lp1164
S'Broad-winged Hawk (Adult)'
p1165
aS'Broad-winged Hawk (Immature)'
p1166
asS'Anas'
p1167
(lp1168
S'Blue-winged Teal'
p1169
aS'Cinnamon Teal'
p1170
ag963
aS'Mottled Duck'
p1171
aS'Gadwall'
p1172
ag143
ag769
aS'Mallard'
p1173
aS'American Black Duck'
p1174
aS'American Wigeon'
p1175
asg373
(lp1176
S'Band-tailed Pigeon'
p1177
asg530
(lp1178
S"Wilson's Phalarope (Nonbreeding, juvenile)"
p1179
aS"Wilson's Phalarope (Breeding)"
p1180
asg1159
(lp1181
S'Indigo Bunting (Female/juvenile)'
p1182
aS'Indigo Bunting (Adult Male)'
p1183
asg1096
(lp1184
S'Hooded Merganser (Female/immature male)'
p1185
aS'Hooded Merganser (Breeding male)'
p1186
asg240
(lp1187
S'Canyon Wren'
p1188
asg684
(lp1189
S'Pacific Loon'
p1190
aS'Red-throated Loon'
p1191
ag954
asg1014
(lp1192
g16
asg1172
(lp1193
S'Gadwall (Breeding male)'
p1194
aS'Gadwall (Female/Eclipse male)'
p1195
asS'Cepphus'
p1196
(lp1197
S'Pigeon Guillemot'
p1198
ag8
asg870
(lp1199
g1117
aS'Charadrius'
p1200
asg1170
(lp1201
S'Cinnamon Teal (Male)'
p1202
aS'Cinnamon Teal (Female/juvenile)'
p1203
asg1173
(lp1204
S'Mallard (Breeding male)'
p1205
aS'Mallard (Female/Eclipse male)'
p1206
asg67
(lp1207
S'Black Turnstone'
p1208
aS'Ruddy Turnstone'
p1209
asg360
(lp1210
g383
aS'Ruby-throated Hummingbird'
p1211
asg784
(lp1212
g796
asg801
(lp1213
S'Calliope Hummingbird (Female, immature)'
p1214
aS'Calliope Hummingbird (Adult Male)'
p1215
asS'Spotted Sandpiper'
p1216
(lp1217
S'Spotted Sandpiper (Breeding)'
p1218
aS'Spotted Sandpiper (Nonbreeding/juvenile)'
p1219
asg447
(lp1220
S'Glossy Ibis'
p1221
aS'White-faced Ibis'
p1222
asg1024
(lp1223
S'Glaucous-winged Gull (Adult)'
p1224
aS'Glaucous-winged Gull (Immature)'
p1225
asS'Glaucidium'
p1226
(lp1227
S'Northern Pygmy-Owl'
p1228
asg710
(lp1229
g1079
asS"Cassin's Finch"
p1230
(lp1231
S"Cassin's Finch (Female/immature)"
p1232
aS"Cassin's Finch (Adult Male)"
p1233
asg316
(lp1234
S'Rose-breasted Grosbeak'
p1235
ag485
asg420
(lp1236
g740
asS'Melanitta'
p1237
(lp1238
g874
ag1146
ag379
asg323
(lp1239
S'American Crow'
p1240
aS'Fish Crow'
p1241
aS'Chihuahuan Raven'
p1242
aS'Common Raven'
p1243
aS'Northwestern Crow'
p1244
asg154
(lp1245
g87
ag773
ag410
asg1157
(lp1246
S'Tachycineta'
p1247
ag563
ag760
ag303
ag5
ag893
asg188
(lp1248
g1196
asg414
(lp1249
g745
ag225
ag134
ag448
ag1046
aS'Myadestes'
p1250
asS'Gruinae'
p1251
(lp1252
g552
asg995
(lp1253
S'Wild Turkey'
p1254
asg931
(lp1255
g540
ag95
ag802
ag1099
ag489
asS'Aix'
p1256
(lp1257
g1051
asg156
(lp1258
g200
asg1098
(lp1259
S'Sharp-shinned Hawk (Adult )'
p1260
aS'Sharp-shinned Hawk (Immature)'
p1261
asS'Aeronautes'
p1262
(lp1263
S'White-throated Swift'
p1264
asg574
(lp1265
S'Rough-legged Hawk (Light morph)'
p1266
aS'Rough-legged Hawk (Dark morph)'
p1267
asS'Clangula'
p1268
(lp1269
S'Long-tailed Duck'
p1270
asg852
(lp1271
S'Scissor-tailed Flycatcher'
p1272
aS'Western Kingbird'
p1273
aS'Eastern Kingbird'
p1274
aS"Cassin's Kingbird"
p1275
asg170
(lp1276
g309
asg1119
(lp1277
S'Black-bellied Plover (Nonbreeding/juvenile)'
p1278
aS'Black-bellied Plover (Breeding)'
p1279
asg78
(lp1280
S'Fox Sparrow (Thick-billed/Slate-colored)'
p1281
aS'Fox Sparrow (Red)'
p1282
aS'Fox Sparrow (Sooty)'
p1283
asg308
(lp1284
S'Northern Bobwhite'
p1285
asg1066
(lp1286
g835
ag1150
aS'Cygnus'
p1287
ag271
asg168
(lp1288
g682
asg89
(lp1289
S'Cattle Egret'
p1290
asg1012
(lp1291
S'House Finch'
p1292
ag1230
aS'Purple Finch'
p1293
asg1065
(lp1294
g1094
ag1237
ag1167
ag1112
ag986
ag193
ag1256
ag791
ag1153
ag1084
ag1268
asg1129
(lp1295
S'Black Skimmer'
p1296
asg1114
(lp1297
S'Lesser Scaup (Breeding male)'
p1298
aS'Lesser Scaup (Female/Eclipse male)'
p1299
asg1190
(lp1300
S'Pacific Loon (Nonbreeding/juvenile)'
p1301
aS'Pacific Loon (Breeding)'
p1302
asS"Brewer's Blackbird"
p1303
(lp1304
S"Brewer's Blackbird (Male)"
p1305
aS"Brewer's Blackbird (Female/Juvenile)"
p1306
asg1247
(lp1307
S'Violet-green Swallow'
p1308
aS'Tree Swallow'
p1309
asg1287
(lp1310
S'Mute Swan'
p1311
aS'Tundra Swan'
p1312
aS'Trumpeter Swan'
p1313
asg429
(lp1314
S'Polioptila'
p1315
asg571
(lp1316
S'Red-shouldered Hawk (Adult )'
p1317
aS'Red-shouldered Hawk (Immature)'
p1318
asg795
(lp1319
S'Black-crowned Night-Heron (Adult)'
p1320
aS'Black-crowned Night-Heron (Immature)'
p1321
asg153
(lp1322
g606
asg1169
(lp1323
S'Blue-winged Teal (Female/juvenile)'
p1324
aS'Blue-winged Teal (Male)'
p1325
asg543
(lp1326
S'Red-headed Woodpecker (Adult)'
p1327
aS'Red-headed Woodpecker (Immature)'
p1328
asg64
(lp1329
g1216
asg1050
(lp1330
S'Ring-necked Pheasant'
p1331
asg187
(lp1332
g62
aS'Phalaropodinae'
p1333
asg159
(lp1334
g518
aS'Cathartidae'
p1335
aS'Pandionidae'
p1336
asg1331
(lp1337
S'Ring-necked Pheasant (Female/juvenile)'
p1338
aS'Ring-necked Pheasant (Male)'
p1339
asg1198
(lp1340
S'Pigeon Guillemot (Breeding)'
p1341
aS'Pigeon Guillemot (Nonbreeding, juvenile)'
p1342
asg1336
(lp1343
g1043
asg1200
(lp1344
S'Killdeer'
p1345
aS'Semipalmated Plover'
p1346
asg1086
(lp1347
S'Harlequin Duck (Male)'
p1348
aS'Harlequin Duck (Female/juvenile)'
p1349
asg1023
(lp1350
S'Western Gull (Immature)'
p1351
aS'Western Gull (Adult)'
p1352
asg1115
(lp1353
S'Canvasback (Breeding male)'
p1354
aS'Canvasback (Female/Eclipse male)'
p1355
asg768
(lp1356
S'Horned Lark'
p1357
asg66
(lp1358
S"Wilson's Snipe"
p1359
asg31
(lp1360
S'Blue-winged Warbler'
p1361
asg1013
(lp1362
S'Hoary Redpoll'
p1363
aS'Common Redpoll'
p1364
asg1315
(lp1365
S'Blue-gray Gnatcatcher'
p1366
aS'Black-tailed Gnatcatcher'
p1367
asg443
(lp1368
S'Common Gallinule (Immature)'
p1369
aS'Common Gallinule (Adult)'
p1370
asg190
(lp1371
g626
asg180
(lp1372
g860
ag1226
ag470
ag291
ag575
ag839
asg158
(lp1373
S'Alcedinidae'
p1374
asg929
(lp1375
S'Northern Shrike'
p1376
aS'Loggerhead Shrike'
p1377
asg1270
(lp1378
S'Long-tailed Duck (Female/juvenile)'
p1379
aS'Long-tailed Duck (Summer male)'
p1380
aS'Long-tailed Duck (Winter male)'
p1381
asg375
(lp1382
S'Common Ground-Dove'
p1383
aS'Inca Dove'
p1384
asg30
(lp1385
S'Black-and-white Warbler'
p1386
asg123
(lp1387
S'Eastern Towhee'
p1388
aS'Green-tailed Towhee'
p1389
aS'Spotted Towhee'
p1390
asg1175
(lp1391
S'American Wigeon (Breeding male)'
p1392
aS'American Wigeon (Female/Eclipse male)'
p1393
asg436
(lp1394
g461
asg404
(lp1395
g147
asg1025
(lp1396
S'Herring Gull (Immature)'
p1397
aS'Herring Gull (Adult)'
p1398
asg1293
(lp1399
S'Purple Finch (Adult Male)'
p1400
aS'Purple Finch (Female/immature)'
p1401
asg1333
(lp1402
g528
asg1191
(lp1403
S'Red-throated Loon (Breeding)'
p1404
aS'Red-throated Loon (Nonbreeding/juvenile)'
p1405
asg1028
(lp1406
S'Yellow-billed Cuckoo'
p1407
aS'Black-billed Cuckoo'
p1408
asg1211
(lp1409
S'Ruby-throated Hummingbird (Female, immature)'
p1410
aS'Ruby-throated Hummingbird (Adult Male)'
p1411
asg161
(lp1412
g371
asg1292
(lp1413
S'House Finch (Female/immature)'
p1414
aS'House Finch (Adult Male)'
p1415
asg793
(lp1416
S'Common Goldeneye (Breeding male)'
p1417
aS'Common Goldeneye (Female/Eclipse male)'
p1418
asg314
(lp1419
g1039
aS'Pyrrhuloxia'
p1420
asg129
(lp1421
S'Lark Sparrow'
p1422
asg589
(lp1423
g1251
asg181
(lp1424
g464
asg91
(lp1425
S'Yellow-crowned Night-Heron'
p1426
asg1075
(lp1427
S'Eastern Meadowlark'
p1428
aS'Western Meadowlark'
p1429
asg243
(lp1430
S'Pacific Wren'
p1431
aS'Winter Wren'
p1432
aS'House Wren'
p1433
asg692
(lp1434
g495
asg1335
(lp1435
g688
ag989
asg1374
(lp1436
g509
asg654
(lp1437
S'Little Blue Heron (Immature)'
p1438
aS'Little Blue Heron (Adult)'
p1439
asg362
(lp1440
g763
ag245
asg1250
(lp1441
S"Townsend's Solitaire"
p1442
asg572
(lp1443
S'Red-tailed Hawk (Dark morph)'
p1444
aS'Red-tailed Hawk (Light morph adult)'
p1445
aS'Red-tailed Hawk (Light morph immature)'
p1446
asg525
(lp1447
g32
asg1074
(lp1448
S'Rusty Blackbird'
p1449
ag1303
asg68
(lp1450
S'Lesser Yellowlegs'
p1451
aS'Greater Yellowlegs'
p1452
aS'Willet'
p1453
aS'Solitary Sandpiper'
p1454
asg405
(lp1455
g1262
asg1426
(lp1456
S'Yellow-crowned Night-Heron (Adult)'
p1457
aS'Yellow-crowned Night-Heron (Immature)'
p1458
asg652
(lp1459
g896
ag864
asg837
(lp1460
S'Snow Goose (Blue morph)'
p1461
aS'Snow Goose (White morph)'
p1462
asg202
(lp1463
g1130
ag555
ag352
asg1235
(lp1464
S'Rose-breasted Grosbeak (Adult Male)'
p1465
aS'Rose-breasted Grosbeak (Female/immature male)'
p1466
asg997
(lp1467
S'Bohemian Waxwing'
p1468
aS'Cedar Waxwing'
p1469
as.